; ModuleID = '24/839.c'
source_filename = "24/839.c"
target datalayout = "e-m:e-p270:32:32-p271:32:32-p272:64:64-i64:64-f80:128-n8:16:32:64-S128"
target triple = "x86_64-pc-linux-gnu"

@.str = private unnamed_addr constant [3 x i8] c"%c\00", align 1
@.str.1 = private unnamed_addr constant [2 x i8] c"\0A\00", align 1

; Function Attrs: noinline nounwind uwtable
define dso_local i32 @main() #0 {
  %1 = alloca i32, align 4
  %2 = alloca i32, align 4
  %3 = alloca i32, align 4
  %4 = alloca i32, align 4
  %5 = alloca i32, align 4
  %6 = alloca i32, align 4
  %7 = alloca i32, align 4
  %8 = alloca [500 x i8], align 16
  %9 = alloca [500 x i32], align 16
  %10 = alloca [500 x i32], align 16
  store i32 0, i32* %1, align 4
  store i32 0, i32* %3, align 4
  store i32 0, i32* %4, align 4
  store i32 100, i32* %5, align 4
  %11 = bitcast [500 x i32]* %9 to i8*
  call void @llvm.memset.p0i8.i64(i8* align 16 %11, i8 0, i64 2000, i1 false)
  %12 = bitcast i8* %11 to <{ i32, [499 x i32] }>*
  %13 = getelementptr inbounds <{ i32, [499 x i32] }>, <{ i32, [499 x i32] }>* %12, i32 0, i32 0
  store i32 -1, i32* %13, align 16
  %14 = getelementptr inbounds [500 x i8], [500 x i8]* %8, i64 0, i64 0
  %15 = call i32 (i8*, ...) bitcast (i32 (...)* @gets to i32 (i8*, ...)*)(i8* %14)
  store i32 0, i32* %2, align 4
  br label %16

16:                                               ; preds = %34, %0
  %17 = load i32, i32* %2, align 4
  %18 = icmp slt i32 %17, 500
  br i1 %18, label %19, label %37

19:                                               ; preds = %16
  %20 = load i32, i32* %2, align 4
  %21 = sext i32 %20 to i64
  %22 = getelementptr inbounds [500 x i8], [500 x i8]* %8, i64 0, i64 %21
  %23 = load i8, i8* %22, align 1
  %24 = sext i8 %23 to i32
  %25 = icmp eq i32 %24, 32
  br i1 %25, label %26, label %33

26:                                               ; preds = %19
  %27 = load i32, i32* %3, align 4
  %28 = add nsw i32 %27, 1
  store i32 %28, i32* %3, align 4
  %29 = load i32, i32* %2, align 4
  %30 = load i32, i32* %3, align 4
  %31 = sext i32 %30 to i64
  %32 = getelementptr inbounds [500 x i32], [500 x i32]* %9, i64 0, i64 %31
  store i32 %29, i32* %32, align 4
  br label %33

33:                                               ; preds = %26, %19
  br label %34

34:                                               ; preds = %33
  %35 = load i32, i32* %2, align 4
  %36 = add nsw i32 %35, 1
  store i32 %36, i32* %2, align 4
  br label %16

37:                                               ; preds = %16
  store i32 0, i32* %2, align 4
  br label %38

38:                                               ; preds = %56, %37
  %39 = load i32, i32* %2, align 4
  %40 = icmp slt i32 %39, 500
  br i1 %40, label %41, label %59

41:                                               ; preds = %38
  %42 = load i32, i32* %2, align 4
  %43 = sext i32 %42 to i64
  %44 = getelementptr inbounds [500 x i8], [500 x i8]* %8, i64 0, i64 %43
  %45 = load i8, i8* %44, align 1
  %46 = sext i8 %45 to i32
  %47 = icmp eq i32 %46, 0
  br i1 %47, label %48, label %55

48:                                               ; preds = %41
  %49 = load i32, i32* %3, align 4
  %50 = add nsw i32 %49, 1
  store i32 %50, i32* %3, align 4
  %51 = load i32, i32* %2, align 4
  %52 = load i32, i32* %3, align 4
  %53 = sext i32 %52 to i64
  %54 = getelementptr inbounds [500 x i32], [500 x i32]* %9, i64 0, i64 %53
  store i32 %51, i32* %54, align 4
  br label %59

55:                                               ; preds = %41
  br label %56

56:                                               ; preds = %55
  %57 = load i32, i32* %2, align 4
  %58 = add nsw i32 %57, 1
  store i32 %58, i32* %2, align 4
  br label %38

59:                                               ; preds = %48, %38
  %60 = getelementptr inbounds [500 x i32], [500 x i32]* %9, i64 0, i64 1
  %61 = load i32, i32* %60, align 4
  %62 = getelementptr inbounds [500 x i32], [500 x i32]* %10, i64 0, i64 0
  store i32 %61, i32* %62, align 16
  store i32 1, i32* %2, align 4
  br label %63

63:                                               ; preds = %82, %59
  %64 = load i32, i32* %2, align 4
  %65 = load i32, i32* %3, align 4
  %66 = icmp sle i32 %64, %65
  br i1 %66, label %67, label %85

67:                                               ; preds = %63
  %68 = load i32, i32* %2, align 4
  %69 = add nsw i32 %68, 1
  %70 = sext i32 %69 to i64
  %71 = getelementptr inbounds [500 x i32], [500 x i32]* %9, i64 0, i64 %70
  %72 = load i32, i32* %71, align 4
  %73 = load i32, i32* %2, align 4
  %74 = sext i32 %73 to i64
  %75 = getelementptr inbounds [500 x i32], [500 x i32]* %9, i64 0, i64 %74
  %76 = load i32, i32* %75, align 4
  %77 = sub nsw i32 %72, %76
  %78 = sub nsw i32 %77, 1
  %79 = load i32, i32* %2, align 4
  %80 = sext i32 %79 to i64
  %81 = getelementptr inbounds [500 x i32], [500 x i32]* %10, i64 0, i64 %80
  store i32 %78, i32* %81, align 4
  br label %82

82:                                               ; preds = %67
  %83 = load i32, i32* %2, align 4
  %84 = add nsw i32 %83, 1
  store i32 %84, i32* %2, align 4
  br label %63

85:                                               ; preds = %63
  store i32 0, i32* %2, align 4
  br label %86

86:                                               ; preds = %117, %85
  %87 = load i32, i32* %2, align 4
  %88 = load i32, i32* %3, align 4
  %89 = icmp slt i32 %87, %88
  br i1 %89, label %90, label %120

90:                                               ; preds = %86
  %91 = load i32, i32* %2, align 4
  %92 = sext i32 %91 to i64
  %93 = getelementptr inbounds [500 x i32], [500 x i32]* %10, i64 0, i64 %92
  %94 = load i32, i32* %93, align 4
  %95 = load i32, i32* %4, align 4
  %96 = icmp sgt i32 %94, %95
  br i1 %96, label %97, label %103

97:                                               ; preds = %90
  %98 = load i32, i32* %2, align 4
  %99 = sext i32 %98 to i64
  %100 = getelementptr inbounds [500 x i32], [500 x i32]* %10, i64 0, i64 %99
  %101 = load i32, i32* %100, align 4
  store i32 %101, i32* %4, align 4
  %102 = load i32, i32* %2, align 4
  store i32 %102, i32* %6, align 4
  br label %103

103:                                              ; preds = %97, %90
  %104 = load i32, i32* %2, align 4
  %105 = sext i32 %104 to i64
  %106 = getelementptr inbounds [500 x i32], [500 x i32]* %10, i64 0, i64 %105
  %107 = load i32, i32* %106, align 4
  %108 = load i32, i32* %5, align 4
  %109 = icmp slt i32 %107, %108
  br i1 %109, label %110, label %116

110:                                              ; preds = %103
  %111 = load i32, i32* %2, align 4
  %112 = sext i32 %111 to i64
  %113 = getelementptr inbounds [500 x i32], [500 x i32]* %10, i64 0, i64 %112
  %114 = load i32, i32* %113, align 4
  store i32 %114, i32* %5, align 4
  %115 = load i32, i32* %2, align 4
  store i32 %115, i32* %7, align 4
  br label %116

116:                                              ; preds = %110, %103
  br label %117

117:                                              ; preds = %116
  %118 = load i32, i32* %2, align 4
  %119 = add nsw i32 %118, 1
  store i32 %119, i32* %2, align 4
  br label %86

120:                                              ; preds = %86
  %121 = load i32, i32* %6, align 4
  %122 = sext i32 %121 to i64
  %123 = getelementptr inbounds [500 x i32], [500 x i32]* %9, i64 0, i64 %122
  %124 = load i32, i32* %123, align 4
  %125 = add nsw i32 %124, 1
  store i32 %125, i32* %2, align 4
  br label %126

126:                                              ; preds = %141, %120
  %127 = load i32, i32* %2, align 4
  %128 = load i32, i32* %6, align 4
  %129 = add nsw i32 %128, 1
  %130 = sext i32 %129 to i64
  %131 = getelementptr inbounds [500 x i32], [500 x i32]* %9, i64 0, i64 %130
  %132 = load i32, i32* %131, align 4
  %133 = icmp slt i32 %127, %132
  br i1 %133, label %134, label %144

134:                                              ; preds = %126
  %135 = load i32, i32* %2, align 4
  %136 = sext i32 %135 to i64
  %137 = getelementptr inbounds [500 x i8], [500 x i8]* %8, i64 0, i64 %136
  %138 = load i8, i8* %137, align 1
  %139 = sext i8 %138 to i32
  %140 = call i32 (i8*, ...) @printf(i8* getelementptr inbounds ([3 x i8], [3 x i8]* @.str, i64 0, i64 0), i32 %139)
  br label %141

141:                                              ; preds = %134
  %142 = load i32, i32* %2, align 4
  %143 = add nsw i32 %142, 1
  store i32 %143, i32* %2, align 4
  br label %126

144:                                              ; preds = %126
  %145 = call i32 (i8*, ...) @printf(i8* getelementptr inbounds ([2 x i8], [2 x i8]* @.str.1, i64 0, i64 0))
  %146 = load i32, i32* %7, align 4
  %147 = sext i32 %146 to i64
  %148 = getelementptr inbounds [500 x i32], [500 x i32]* %9, i64 0, i64 %147
  %149 = load i32, i32* %148, align 4
  %150 = add nsw i32 %149, 1
  store i32 %150, i32* %2, align 4
  br label %151

151:                                              ; preds = %166, %144
  %152 = load i32, i32* %2, align 4
  %153 = load i32, i32* %7, align 4
  %154 = add nsw i32 %153, 1
  %155 = sext i32 %154 to i64
  %156 = getelementptr inbounds [500 x i32], [500 x i32]* %9, i64 0, i64 %155
  %157 = load i32, i32* %156, align 4
  %158 = icmp slt i32 %152, %157
  br i1 %158, label %159, label %169

159:                                              ; preds = %151
  %160 = load i32, i32* %2, align 4
  %161 = sext i32 %160 to i64
  %162 = getelementptr inbounds [500 x i8], [500 x i8]* %8, i64 0, i64 %161
  %163 = load i8, i8* %162, align 1
  %164 = sext i8 %163 to i32
  %165 = call i32 (i8*, ...) @printf(i8* getelementptr inbounds ([3 x i8], [3 x i8]* @.str, i64 0, i64 0), i32 %164)
  br label %166

166:                                              ; preds = %159
  %167 = load i32, i32* %2, align 4
  %168 = add nsw i32 %167, 1
  store i32 %168, i32* %2, align 4
  br label %151

169:                                              ; preds = %151
  ret i32 0
}

; Function Attrs: argmemonly nounwind willreturn
declare void @llvm.memset.p0i8.i64(i8* nocapture writeonly, i8, i64, i1 immarg) #1

declare dso_local i32 @gets(...) #2

declare dso_local i32 @printf(i8*, ...) #2


!llvm.module.flags = !{!0}
!llvm.ident = !{!1}

!0 = !{i32 1, !"wchar_size", i32 4}
!1 = !{!"clang version 10.0.0-4ubuntu1 "}
